target datalayout = "e-m:e-p270:32:32-p271:32:32-p272:64:64-i64:64-i128:128-f80:128-n8:16:32:64-S128"
target triple = "x86_64-pc-linux-gnu"

%struct.opj_tgt_tree = type { i32, i32, i32, ptr, i32 }
%struct.opj_tgt_node = type { ptr, i32, i32, i32 }

; Function Attrs: nounwind uwtable
define hidden void @opj_tgt_setvalue(ptr noundef %0, i32 noundef %1, i32 noundef %2) #0 {
  %4 = alloca ptr, align 8
  %5 = alloca i32, align 4
  %6 = alloca i32, align 4
  %7 = alloca ptr, align 8
  store ptr %0, ptr %4, align 8, !tbaa !12
  store i32 %1, ptr %5, align 4, !tbaa !3
  store i32 %2, ptr %6, align 4, !tbaa !3
  call void @llvm.lifetime.start.p0(i64 8, ptr %7) #4
  %8 = load ptr, ptr %4, align 8, !tbaa !12
  %9 = getelementptr inbounds nuw %struct.opj_tgt_tree, ptr %8, i32 0, i32 3
  %10 = load ptr, ptr %9, align 8, !tbaa !20
  %11 = load i32, ptr %5, align 4, !tbaa !3
  %12 = zext i32 %11 to i64
  %13 = getelementptr inbounds nuw %struct.opj_tgt_node, ptr %10, i64 %12
  store ptr %13, ptr %7, align 8, !tbaa !10
  br label %14

14:                                               ; preds = %25, %3
  %15 = load ptr, ptr %7, align 8, !tbaa !10
  %16 = icmp ne ptr %15, null
  br i1 %16, label %17, label %23

17:                                               ; preds = %14
  %18 = load ptr, ptr %7, align 8, !tbaa !10
  %19 = getelementptr inbounds nuw %struct.opj_tgt_node, ptr %18, i32 0, i32 1
  %20 = load i32, ptr %19, align 8, !tbaa !27
  %21 = load i32, ptr %6, align 4, !tbaa !3
  %22 = icmp sgt i32 %20, %21
  br label %23

23:                                               ; preds = %17, %14
  %24 = phi i1 [ false, %14 ], [ %22, %17 ]
  br i1 %24, label %25, label %32

25:                                               ; preds = %23
  %26 = load i32, ptr %6, align 4, !tbaa !3
  %27 = load ptr, ptr %7, align 8, !tbaa !10
  %28 = getelementptr inbounds nuw %struct.opj_tgt_node, ptr %27, i32 0, i32 1
  store i32 %26, ptr %28, align 8, !tbaa !27
  %29 = load ptr, ptr %7, align 8, !tbaa !10
  %30 = getelementptr inbounds nuw %struct.opj_tgt_node, ptr %29, i32 0, i32 0
  %31 = load ptr, ptr %30, align 8, !tbaa !22
  store ptr %31, ptr %7, align 8, !tbaa !10
  br label %14, !llvm.loop !35

32:                                               ; preds = %23
  call void @llvm.lifetime.end.p0(i64 8, ptr %7) #4
  ret void
}