; Function Attrs: nofree norecurse nosync nounwind memory(readwrite, inaccessiblemem: none) uwtable
define hidden void @opj_tgt_setvalue(ptr noundef readonly captures(none) %0, i32 noundef %1, i32 noundef %2) local_unnamed_addr #5 {
  %4 = getelementptr inbounds nuw i8, ptr %0, i64 16
  %5 = load ptr, ptr %4, align 8, !tbaa !15
  %.not8 = icmp eq ptr %5, null
  br i1 %.not8, label %.critedge, label %.lr.ph.preheader

.lr.ph.preheader:                                 ; preds = %3
  %6 = zext i32 %1 to i64
  %7 = getelementptr inbounds nuw %struct.opj_tgt_node, ptr %5, i64 %6
  br label %.lr.ph

.lr.ph:                                           ; preds = %.lr.ph.preheader, %11
  %.09 = phi ptr [ %12, %11 ], [ %7, %.lr.ph.preheader ]
  %8 = getelementptr inbounds nuw i8, ptr %.09, i64 8
  %9 = load i32, ptr %8, align 8, !tbaa !22
  %10 = icmp sgt i32 %9, %2
  br i1 %10, label %11, label %.critedge

11:                                               ; preds = %.lr.ph
  store i32 %2, ptr %8, align 8, !tbaa !22
  %12 = load ptr, ptr %.09, align 8, !tbaa !17
  %.not = icmp eq ptr %12, null
  br i1 %.not, label %.critedge, label %.lr.ph, !llvm.loop !30

.critedge:                                        ; preds = %.lr.ph, %11, %3
  ret void
}